target datalayout = "e-m:e-p270:32:32-p271:32:32-p272:64:64-i64:64-i128:128-f80:128-n8:16:32:64-S128"
target triple = "x86_64-pc-linux-gnu"

%"struct.Luau::TypeFunctionRuntime" = type { %"class.Luau::TypedAllocator", %"class.Luau::TypedAllocator.5", %"struct.Luau::NotNull", %"struct.Luau::NotNull.11", %"class.std::unique_ptr", %"class.Luau::DenseHashSet", i8, %"class.std::vector.14" }
%"class.Luau::TypedAllocator" = type { i8, %"class.std::vector", i64 }
%"class.std::vector" = type { %"struct.std::_Vector_base" }
%"struct.std::_Vector_base" = type { %"struct.std::_Vector_base<Luau::TypeFunctionType *, std::allocator<Luau::TypeFunctionType *>>::_Vector_impl" }
%"struct.std::_Vector_base<Luau::TypeFunctionType *, std::allocator<Luau::TypeFunctionType *>>::_Vector_impl" = type { %"struct.std::_Vector_base<Luau::TypeFunctionType *, std::allocator<Luau::TypeFunctionType *>>::_Vector_impl_data" }
%"struct.std::_Vector_base<Luau::TypeFunctionType *, std::allocator<Luau::TypeFunctionType *>>::_Vector_impl_data" = type { ptr, ptr, ptr }
%"class.Luau::TypedAllocator.5" = type { i8, %"class.std::vector.6", i64 }
%"class.std::vector.6" = type { %"struct.std::_Vector_base.7" }
%"struct.std::_Vector_base.7" = type { %"struct.std::_Vector_base<Luau::TypeFunctionTypePackVar *, std::allocator<Luau::TypeFunctionTypePackVar *>>::_Vector_impl" }
%"struct.std::_Vector_base<Luau::TypeFunctionTypePackVar *, std::allocator<Luau::TypeFunctionTypePackVar *>>::_Vector_impl" = type { %"struct.std::_Vector_base<Luau::TypeFunctionTypePackVar *, std::allocator<Luau::TypeFunctionTypePackVar *>>::_Vector_impl_data" }
%"struct.std::_Vector_base<Luau::TypeFunctionTypePackVar *, std::allocator<Luau::TypeFunctionTypePackVar *>>::_Vector_impl_data" = type { ptr, ptr, ptr }
%"struct.Luau::NotNull" = type { ptr }
%"struct.Luau::NotNull.11" = type { ptr }
%"class.std::unique_ptr" = type { %"struct.std::__uniq_ptr_data" }
%"struct.std::__uniq_ptr_data" = type { %"class.std::__uniq_ptr_impl" }
%"class.std::__uniq_ptr_impl" = type { %"class.std::tuple" }
%"class.std::tuple" = type { %"struct.std::_Tuple_impl" }
%"struct.std::_Tuple_impl" = type { %"struct.std::_Tuple_impl.12", %"struct.std::_Head_base.13" }
%"struct.std::_Tuple_impl.12" = type { %"struct.std::_Head_base" }
%"struct.std::_Head_base" = type { ptr }
%"struct.std::_Head_base.13" = type { ptr }
%"class.Luau::DenseHashSet" = type { %"class.Luau::detail::DenseHashTable" }
%"class.Luau::detail::DenseHashTable" = type <{ ptr, i64, i64, ptr, [8 x i8] }>
%"class.std::vector.14" = type { %"struct.std::_Vector_base.15" }
%"struct.std::_Vector_base.15" = type { %"struct.std::_Vector_base<std::__cxx11::basic_string<char>, std::allocator<std::__cxx11::basic_string<char>>>::_Vector_impl" }
%"struct.std::_Vector_base<std::__cxx11::basic_string<char>, std::allocator<std::__cxx11::basic_string<char>>>::_Vector_impl" = type { %"struct.std::_Vector_base<std::__cxx11::basic_string<char>, std::allocator<std::__cxx11::basic_string<char>>>::_Vector_impl_data" }
%"struct.std::_Vector_base<std::__cxx11::basic_string<char>, std::allocator<std::__cxx11::basic_string<char>>>::_Vector_impl_data" = type { ptr, ptr, ptr }
%"class.Luau::Variant.19" = type { i32, [4 x i8], [40 x i8] }
%"struct.Luau::TypeFunctionTypePackVar" = type { %"class.Luau::Variant.19" }
%"class.__gnu_cxx::__normal_iterator.116" = type { ptr }

; Function Attrs: mustprogress nounwind uwtable
define linkonce_odr dso_local void @_ZN9__gnu_cxx17__normal_iteratorIPPN4Luau23TypeFunctionTypePackVarESt6vectorIS3_SaIS3_EEEC2ERKS4_(ptr noundef nonnull align 8 dereferenceable(8) %0, ptr noundef nonnull align 8 dereferenceable(8) %1) unnamed_addr #2 comdat align 2 {
  %3 = alloca ptr, align 8
  %4 = alloca ptr, align 8
  store ptr %0, ptr %3, align 8, !tbaa !558
  store ptr %1, ptr %4, align 8, !tbaa !421
  %5 = load ptr, ptr %3, align 8
  %6 = getelementptr inbounds nuw %"class.__gnu_cxx::__normal_iterator.116", ptr %5, i32 0, i32 0
  %7 = load ptr, ptr %4, align 8, !tbaa !421
  %8 = load ptr, ptr %7, align 8, !tbaa !129
  store ptr %8, ptr %6, align 8, !tbaa !562
  ret void
}

; Function Attrs: mustprogress nounwind uwtable
define linkonce_odr dso_local noundef nonnull align 8 dereferenceable(8) ptr @_ZNK9__gnu_cxx17__normal_iteratorIPPN4Luau23TypeFunctionTypePackVarESt6vectorIS3_SaIS3_EEEdeEv(ptr noundef nonnull align 8 dereferenceable(8) %0) #2 comdat align 2 {
  %2 = alloca ptr, align 8
  store ptr %0, ptr %2, align 8, !tbaa !558
  %3 = load ptr, ptr %2, align 8
  %4 = getelementptr inbounds nuw %"class.__gnu_cxx::__normal_iterator.116", ptr %3, i32 0, i32 0
  %5 = load ptr, ptr %4, align 8, !tbaa !562
  ret ptr %5
}

; Function Attrs: mustprogress nounwind uwtable
define linkonce_odr dso_local ptr @_ZNK9__gnu_cxx17__normal_iteratorIPPN4Luau23TypeFunctionTypePackVarESt6vectorIS3_SaIS3_EEEmiEl(ptr noundef nonnull align 8 dereferenceable(8) %0, i64 noundef %1) #2 comdat align 2 {
  %3 = alloca %"class.__gnu_cxx::__normal_iterator.116", align 8
  %4 = alloca ptr, align 8
  %5 = alloca i64, align 8
  %6 = alloca ptr, align 8
  store ptr %0, ptr %4, align 8, !tbaa !558
  store i64 %1, ptr %5, align 8, !tbaa !23
  %7 = load ptr, ptr %4, align 8
  call void @llvm.lifetime.start.p0(i64 8, ptr %6) #17
  %8 = getelementptr inbounds nuw %"class.__gnu_cxx::__normal_iterator.116", ptr %7, i32 0, i32 0
  %9 = load ptr, ptr %8, align 8, !tbaa !562
  %10 = load i64, ptr %5, align 8, !tbaa !23
  %11 = sub i64 0, %10
  %12 = getelementptr inbounds ptr, ptr %9, i64 %11
  store ptr %12, ptr %6, align 8, !tbaa !129
  call void @_ZN9__gnu_cxx17__normal_iteratorIPPN4Luau23TypeFunctionTypePackVarESt6vectorIS3_SaIS3_EEEC2ERKS4_(ptr noundef nonnull align 8 dereferenceable(8) %3, ptr noundef nonnull align 8 dereferenceable(8) %6) #17
  call void @llvm.lifetime.end.p0(i64 8, ptr %6) #17
  %13 = getelementptr inbounds nuw %"class.__gnu_cxx::__normal_iterator.116", ptr %3, i32 0, i32 0
  %14 = load ptr, ptr %13, align 8
  ret ptr %14
}

; Function Attrs: mustprogress nounwind uwtable
define linkonce_odr dso_local ptr @_ZNSt6vectorIPN4Luau23TypeFunctionTypePackVarESaIS2_EE3endEv(ptr noundef nonnull align 8 dereferenceable(24) %0) #2 comdat align 2 {
  %2 = alloca %"class.__gnu_cxx::__normal_iterator.116", align 8
  %3 = alloca ptr, align 8
  store ptr %0, ptr %3, align 8, !tbaa !549
  %4 = load ptr, ptr %3, align 8
  %5 = getelementptr inbounds nuw %"struct.std::_Vector_base.7", ptr %4, i32 0, i32 0
  %6 = getelementptr inbounds nuw %"struct.std::_Vector_base<Luau::TypeFunctionTypePackVar *, std::allocator<Luau::TypeFunctionTypePackVar *>>::_Vector_impl_data", ptr %5, i32 0, i32 1
  call void @_ZN9__gnu_cxx17__normal_iteratorIPPN4Luau23TypeFunctionTypePackVarESt6vectorIS3_SaIS3_EEEC2ERKS4_(ptr noundef nonnull align 8 dereferenceable(8) %2, ptr noundef nonnull align 8 dereferenceable(8) %6) #17
  %7 = getelementptr inbounds nuw %"class.__gnu_cxx::__normal_iterator.116", ptr %2, i32 0, i32 0
  %8 = load ptr, ptr %7, align 8
  ret ptr %8
}

; Function Attrs: mustprogress nounwind uwtable
define linkonce_odr dso_local void @_ZN4Luau7VariantIJNS_20TypeFunctionTypePackENS_28TypeFunctionVariadicTypePackENS_27TypeFunctionGenericTypePackEEED2Ev(ptr noundef nonnull align 8 dereferenceable(48) %0) unnamed_addr #2 comdat align 2 personality ptr @__gxx_personality_v0 {
  %2 = alloca ptr, align 8
  store ptr %0, ptr %2, align 8, !tbaa !47
  %3 = load ptr, ptr %2, align 8
  %4 = getelementptr inbounds nuw %"class.Luau::Variant.19", ptr %3, i32 0, i32 0
  %5 = load i32, ptr %4, align 8, !tbaa !391
  %6 = sext i32 %5 to i64
  %7 = getelementptr inbounds [3 x ptr], ptr @_ZN4Luau7VariantIJNS_20TypeFunctionTypePackENS_28TypeFunctionVariadicTypePackENS_27TypeFunctionGenericTypePackEEE9tableDtorE, i64 0, i64 %6
  %8 = load ptr, ptr %7, align 8, !tbaa !22
  %9 = getelementptr inbounds nuw %"class.Luau::Variant.19", ptr %3, i32 0, i32 2
  invoke void %8(ptr noundef %9)
          to label %10 unwind label %11

10:                                               ; preds = %1
  ret void

11:                                               ; preds = %1
  %12 = landingpad { ptr, i32 }
          catch ptr null
  %13 = extractvalue { ptr, i32 } %12, 0
  call void @__clang_call_terminate(ptr %13) #19
  unreachable
}

; Function Attrs: mustprogress uwtable
define linkonce_odr dso_local void @_ZN4Luau23TypeFunctionTypePackVarC2ENS_7VariantIJNS_20TypeFunctionTypePackENS_28TypeFunctionVariadicTypePackENS_27TypeFunctionGenericTypePackEEEE(ptr noundef nonnull align 8 dereferenceable(48) %0, ptr noundef %1) unnamed_addr #3 comdat align 2 {
  %3 = alloca ptr, align 8
  %4 = alloca ptr, align 8
  store ptr %0, ptr %3, align 8, !tbaa !58
  store ptr %1, ptr %4, align 8, !tbaa !47
  %5 = load ptr, ptr %3, align 8
  %6 = getelementptr inbounds nuw %"struct.Luau::TypeFunctionTypePackVar", ptr %5, i32 0, i32 0
  call void @_ZN4Luau7VariantIJNS_20TypeFunctionTypePackENS_28TypeFunctionVariadicTypePackENS_27TypeFunctionGenericTypePackEEEC2EOS4_(ptr noundef nonnull align 8 dereferenceable(48) %6, ptr noundef nonnull align 8 dereferenceable(48) %1)
  ret void
}

; Function Attrs: mustprogress uwtable
define linkonce_odr dso_local void @_ZN4Luau7VariantIJNS_20TypeFunctionTypePackENS_28TypeFunctionVariadicTypePackENS_27TypeFunctionGenericTypePackEEEC2EOS4_(ptr noundef nonnull align 8 dereferenceable(48) %0, ptr noundef nonnull align 8 dereferenceable(48) %1) unnamed_addr #3 comdat align 2 {
  %3 = alloca ptr, align 8
  %4 = alloca ptr, align 8
  store ptr %0, ptr %3, align 8, !tbaa !47
  store ptr %1, ptr %4, align 8, !tbaa !47
  %5 = load ptr, ptr %3, align 8
  %6 = load ptr, ptr %4, align 8, !tbaa !47
  %7 = getelementptr inbounds nuw %"class.Luau::Variant.19", ptr %6, i32 0, i32 0
  %8 = load i32, ptr %7, align 8, !tbaa !391
  %9 = getelementptr inbounds nuw %"class.Luau::Variant.19", ptr %5, i32 0, i32 0
  store i32 %8, ptr %9, align 8, !tbaa !391
  %10 = getelementptr inbounds nuw %"class.Luau::Variant.19", ptr %5, i32 0, i32 0
  %11 = load i32, ptr %10, align 8, !tbaa !391
  %12 = sext i32 %11 to i64
  %13 = getelementptr inbounds [3 x ptr], ptr @_ZN4Luau7VariantIJNS_20TypeFunctionTypePackENS_28TypeFunctionVariadicTypePackENS_27TypeFunctionGenericTypePackEEE9tableMoveE, i64 0, i64 %12
  %14 = load ptr, ptr %13, align 8, !tbaa !22
  %15 = getelementptr inbounds nuw %"class.Luau::Variant.19", ptr %5, i32 0, i32 2
  %16 = load ptr, ptr %4, align 8, !tbaa !47
  %17 = getelementptr inbounds nuw %"class.Luau::Variant.19", ptr %16, i32 0, i32 2
  call void %14(ptr noundef %15, ptr noundef %17)
  ret void
}

; Function Attrs: mustprogress nounwind uwtable
define linkonce_odr dso_local noundef nonnull align 8 dereferenceable(8) ptr @_ZNSt6vectorIPN4Luau23TypeFunctionTypePackVarESaIS2_EE4backEv(ptr noundef nonnull align 8 dereferenceable(24) %0) #2 comdat align 2 {
  %2 = alloca ptr, align 8
  %3 = alloca %"class.__gnu_cxx::__normal_iterator.116", align 8
  %4 = alloca %"class.__gnu_cxx::__normal_iterator.116", align 8
  store ptr %0, ptr %2, align 8, !tbaa !549
  %5 = load ptr, ptr %2, align 8
  call void @llvm.lifetime.start.p0(i64 8, ptr %3) #17
  call void @llvm.lifetime.start.p0(i64 8, ptr %4) #17
  %6 = call ptr @_ZNSt6vectorIPN4Luau23TypeFunctionTypePackVarESaIS2_EE3endEv(ptr noundef nonnull align 8 dereferenceable(24) %5) #17
  %7 = getelementptr inbounds nuw %"class.__gnu_cxx::__normal_iterator.116", ptr %4, i32 0, i32 0
  store ptr %6, ptr %7, align 8
  %8 = call ptr @_ZNK9__gnu_cxx17__normal_iteratorIPPN4Luau23TypeFunctionTypePackVarESt6vectorIS3_SaIS3_EEEmiEl(ptr noundef nonnull align 8 dereferenceable(8) %4, i64 noundef 1) #17
  %9 = getelementptr inbounds nuw %"class.__gnu_cxx::__normal_iterator.116", ptr %3, i32 0, i32 0
  store ptr %8, ptr %9, align 8
  %10 = call noundef nonnull align 8 dereferenceable(8) ptr @_ZNK9__gnu_cxx17__normal_iteratorIPPN4Luau23TypeFunctionTypePackVarESt6vectorIS3_SaIS3_EEEdeEv(ptr noundef nonnull align 8 dereferenceable(8) %3) #17
  call void @llvm.lifetime.end.p0(i64 8, ptr %4) #17
  call void @llvm.lifetime.end.p0(i64 8, ptr %3) #17
  ret ptr %10
}

; Function Attrs: mustprogress uwtable
define linkonce_odr dso_local noundef ptr @_ZN4Luau14TypedAllocatorINS_23TypeFunctionTypePackVarEE8allocateIJNS_7VariantIJNS_20TypeFunctionTypePackENS_28TypeFunctionVariadicTypePackENS_27TypeFunctionGenericTypePackEEEEEEEPS1_DpOT_(ptr noundef nonnull align 8 dereferenceable(40) %0, ptr noundef nonnull align 8 dereferenceable(48) %1) #3 comdat align 2 personality ptr @__gxx_personality_v0 {
  %3 = alloca ptr, align 8
  %4 = alloca ptr, align 8
  %5 = alloca ptr, align 8
  %6 = alloca ptr, align 8
  %7 = alloca %"class.Luau::Variant.19", align 8
  %8 = alloca ptr, align 8
  %9 = alloca i32, align 4
  store ptr %0, ptr %3, align 8, !tbaa !49
  store ptr %1, ptr %4, align 8, !tbaa !47
  %10 = load ptr, ptr %3, align 8
  %11 = getelementptr inbounds nuw %"class.Luau::TypedAllocator.5", ptr %10, i32 0, i32 2
  %12 = load i64, ptr %11, align 8, !tbaa !51
  %13 = icmp uge i64 %12, 682
  br i1 %13, label %14, label %15

14:                                               ; preds = %2
  call void @_ZN4Luau14TypedAllocatorINS_23TypeFunctionTypePackVarEE11appendBlockEv(ptr noundef nonnull align 8 dereferenceable(40) %10)
  br label %15

15:                                               ; preds = %14, %2
  call void @llvm.lifetime.start.p0(i64 8, ptr %5) #17
  %16 = getelementptr inbounds nuw %"class.Luau::TypedAllocator.5", ptr %10, i32 0, i32 1
  %17 = call noundef nonnull align 8 dereferenceable(8) ptr @_ZNSt6vectorIPN4Luau23TypeFunctionTypePackVarESaIS2_EE4backEv(ptr noundef nonnull align 8 dereferenceable(24) %16) #17
  %18 = load ptr, ptr %17, align 8, !tbaa !58
  store ptr %18, ptr %5, align 8, !tbaa !58
  call void @llvm.lifetime.start.p0(i64 8, ptr %6) #17
  %19 = load ptr, ptr %5, align 8, !tbaa !58
  %20 = getelementptr inbounds nuw %"class.Luau::TypedAllocator.5", ptr %10, i32 0, i32 2
  %21 = load i64, ptr %20, align 8, !tbaa !51
  %22 = getelementptr inbounds nuw %"struct.Luau::TypeFunctionTypePackVar", ptr %19, i64 %21
  store ptr %22, ptr %6, align 8, !tbaa !58
  %23 = load ptr, ptr %6, align 8, !tbaa !58
  %24 = load ptr, ptr %4, align 8, !tbaa !47
  call void @_ZN4Luau7VariantIJNS_20TypeFunctionTypePackENS_28TypeFunctionVariadicTypePackENS_27TypeFunctionGenericTypePackEEEC2EOS4_(ptr noundef nonnull align 8 dereferenceable(48) %7, ptr noundef nonnull align 8 dereferenceable(48) %24)
  invoke void @_ZN4Luau23TypeFunctionTypePackVarC2ENS_7VariantIJNS_20TypeFunctionTypePackENS_28TypeFunctionVariadicTypePackENS_27TypeFunctionGenericTypePackEEEE(ptr noundef nonnull align 8 dereferenceable(48) %23, ptr noundef %7)
          to label %25 unwind label %30

25:                                               ; preds = %15
  call void @_ZN4Luau7VariantIJNS_20TypeFunctionTypePackENS_28TypeFunctionVariadicTypePackENS_27TypeFunctionGenericTypePackEEED2Ev(ptr noundef nonnull align 8 dereferenceable(48) %7) #17
  %26 = getelementptr inbounds nuw %"class.Luau::TypedAllocator.5", ptr %10, i32 0, i32 2
  %27 = load i64, ptr %26, align 8, !tbaa !51
  %28 = add i64 %27, 1
  store i64 %28, ptr %26, align 8, !tbaa !51
  %29 = load ptr, ptr %6, align 8, !tbaa !58
  call void @llvm.lifetime.end.p0(i64 8, ptr %6) #17
  call void @llvm.lifetime.end.p0(i64 8, ptr %5) #17
  ret ptr %29

30:                                               ; preds = %15
  %31 = landingpad { ptr, i32 }
          cleanup
  %32 = extractvalue { ptr, i32 } %31, 0
  store ptr %32, ptr %8, align 8
  %33 = extractvalue { ptr, i32 } %31, 1
  store i32 %33, ptr %9, align 4
  call void @_ZN4Luau7VariantIJNS_20TypeFunctionTypePackENS_28TypeFunctionVariadicTypePackENS_27TypeFunctionGenericTypePackEEED2Ev(ptr noundef nonnull align 8 dereferenceable(48) %7) #17
  call void @llvm.lifetime.end.p0(i64 8, ptr %6) #17
  call void @llvm.lifetime.end.p0(i64 8, ptr %5) #17
  br label %34

34:                                               ; preds = %30
  %35 = load ptr, ptr %8, align 8
  %36 = load i32, ptr %9, align 4
  %37 = insertvalue { ptr, i32 } poison, ptr %35, 0
  %38 = insertvalue { ptr, i32 } %37, i32 %36, 1
  resume { ptr, i32 } %38
}

; Function Attrs: mustprogress uwtable
define internal noundef ptr @_ZN4LuauL22getTypeFunctionRuntimeEP9lua_State(ptr noundef %0) #3 {
  %2 = alloca ptr, align 8
  store ptr %0, ptr %2, align 8, !tbaa !25
  %3 = load ptr, ptr %2, align 8, !tbaa !25
  %4 = call noundef ptr @_Z14lua_mainthreadP9lua_State(ptr noundef %3)
  %5 = call noundef ptr @_Z17lua_getthreaddataP9lua_State(ptr noundef %4)
  ret ptr %5
}

; Function Attrs: mustprogress uwtable
define dso_local noundef ptr @_ZN4Luau28allocateTypeFunctionTypePackEP9lua_StateNS_7VariantIJNS_20TypeFunctionTypePackENS_28TypeFunctionVariadicTypePackENS_27TypeFunctionGenericTypePackEEEE(ptr noundef %0, ptr noundef %1) #3 {
  %3 = alloca ptr, align 8
  %4 = alloca ptr, align 8
  %5 = alloca ptr, align 8
  store ptr %0, ptr %3, align 8, !tbaa !25
  store ptr %1, ptr %4, align 8, !tbaa !47
  call void @llvm.lifetime.start.p0(i64 8, ptr %5) #17
  %6 = load ptr, ptr %3, align 8, !tbaa !25
  %7 = call noundef ptr @_ZN4LuauL22getTypeFunctionRuntimeEP9lua_State(ptr noundef %6)
  store ptr %7, ptr %5, align 8, !tbaa !33
  %8 = load ptr, ptr %5, align 8, !tbaa !33
  %9 = getelementptr inbounds nuw %"struct.Luau::TypeFunctionRuntime", ptr %8, i32 0, i32 1
  %10 = call noundef ptr @_ZN4Luau14TypedAllocatorINS_23TypeFunctionTypePackVarEE8allocateIJNS_7VariantIJNS_20TypeFunctionTypePackENS_28TypeFunctionVariadicTypePackENS_27TypeFunctionGenericTypePackEEEEEEEPS1_DpOT_(ptr noundef nonnull align 8 dereferenceable(40) %9, ptr noundef nonnull align 8 dereferenceable(48) %1)
  call void @llvm.lifetime.end.p0(i64 8, ptr %5) #17
  ret ptr %10
}