; Function Attrs: mustprogress uwtable
define dso_local noundef ptr @_ZN4Luau28allocateTypeFunctionTypePackEP9lua_StateNS_7VariantIJNS_20TypeFunctionTypePackENS_28TypeFunctionVariadicTypePackENS_27TypeFunctionGenericTypePackEEEE(ptr noundef %0, ptr noundef %1) local_unnamed_addr #2 personality ptr @__gxx_personality_v0 {
  %3 = alloca %"class.Luau::Variant.19", align 8
  %4 = tail call noundef ptr @_Z14lua_mainthreadP9lua_State(ptr noundef %0)
  %5 = tail call noundef ptr @_Z17lua_getthreaddataP9lua_State(ptr noundef %4)
  call void @llvm.lifetime.start.p0(i64 48, ptr nonnull %3)
  %6 = getelementptr inbounds nuw i8, ptr %5, i64 72
  %7 = load i64, ptr %6, align 8, !tbaa !34
  %8 = icmp ugt i64 %7, 681
  br i1 %8, label %9, label %11

9:                                                ; preds = %2
  %10 = getelementptr inbounds nuw i8, ptr %5, i64 40
  tail call void @_ZN4Luau14TypedAllocatorINS_23TypeFunctionTypePackVarEE11appendBlockEv(ptr noundef nonnull align 8 dereferenceable(40) %10)
  %.pre.i = load i64, ptr %6, align 8, !tbaa !34
  br label %11

11:                                               ; preds = %9, %2
  %12 = phi i64 [ %.pre.i, %9 ], [ %7, %2 ]
  %13 = getelementptr inbounds nuw i8, ptr %5, i64 56
  %14 = load ptr, ptr %13, align 8, !tbaa !41
  %15 = getelementptr inbounds i8, ptr %14, i64 -8
  %16 = load ptr, ptr %15, align 8, !tbaa !42
  %17 = getelementptr inbounds nuw %"struct.Luau::TypeFunctionTypePackVar", ptr %16, i64 %12
  %18 = load i32, ptr %1, align 8, !tbaa !44
  store i32 %18, ptr %3, align 8, !tbaa !44
  %19 = sext i32 %18 to i64
  %20 = getelementptr inbounds [3 x ptr], ptr @_ZN4Luau7VariantIJNS_20TypeFunctionTypePackENS_28TypeFunctionVariadicTypePackENS_27TypeFunctionGenericTypePackEEE9tableMoveE, i64 0, i64 %19
  %21 = load ptr, ptr %20, align 8, !tbaa !33
  %22 = getelementptr inbounds nuw i8, ptr %3, i64 8
  %23 = getelementptr inbounds nuw i8, ptr %1, i64 8
  call void %21(ptr noundef nonnull %22, ptr noundef nonnull %23)
  %24 = load i32, ptr %3, align 8, !tbaa !44
  store i32 %24, ptr %17, align 8, !tbaa !44
  %25 = sext i32 %24 to i64
  %26 = getelementptr inbounds [3 x ptr], ptr @_ZN4Luau7VariantIJNS_20TypeFunctionTypePackENS_28TypeFunctionVariadicTypePackENS_27TypeFunctionGenericTypePackEEE9tableMoveE, i64 0, i64 %25
  %27 = load ptr, ptr %26, align 8, !tbaa !33
  %28 = getelementptr inbounds nuw i8, ptr %17, i64 8
  invoke void %27(ptr noundef nonnull %28, ptr noundef nonnull %22)
          to label %_ZN4Luau23TypeFunctionTypePackVarC2ENS_7VariantIJNS_20TypeFunctionTypePackENS_28TypeFunctionVariadicTypePackENS_27TypeFunctionGenericTypePackEEEE.exit.i unwind label %36

_ZN4Luau23TypeFunctionTypePackVarC2ENS_7VariantIJNS_20TypeFunctionTypePackENS_28TypeFunctionVariadicTypePackENS_27TypeFunctionGenericTypePackEEEE.exit.i: ; preds = %11
  %29 = load i32, ptr %3, align 8, !tbaa !44
  %30 = sext i32 %29 to i64
  %31 = getelementptr inbounds [3 x ptr], ptr @_ZN4Luau7VariantIJNS_20TypeFunctionTypePackENS_28TypeFunctionVariadicTypePackENS_27TypeFunctionGenericTypePackEEE9tableDtorE, i64 0, i64 %30
  %32 = load ptr, ptr %31, align 8, !tbaa !33
  invoke void %32(ptr noundef nonnull %22)
          to label %_ZN4Luau14TypedAllocatorINS_23TypeFunctionTypePackVarEE8allocateIJNS_7VariantIJNS_20TypeFunctionTypePackENS_28TypeFunctionVariadicTypePackENS_27TypeFunctionGenericTypePackEEEEEEEPS1_DpOT_.exit unwind label %33

33:                                               ; preds = %_ZN4Luau23TypeFunctionTypePackVarC2ENS_7VariantIJNS_20TypeFunctionTypePackENS_28TypeFunctionVariadicTypePackENS_27TypeFunctionGenericTypePackEEEE.exit.i
  %34 = landingpad { ptr, i32 }
          catch ptr null
  %35 = extractvalue { ptr, i32 } %34, 0
  call void @__clang_call_terminate(ptr %35) #28
  unreachable

36:                                               ; preds = %11
  %37 = landingpad { ptr, i32 }
          cleanup
  %38 = load i32, ptr %3, align 8, !tbaa !44
  %39 = sext i32 %38 to i64
  %40 = getelementptr inbounds [3 x ptr], ptr @_ZN4Luau7VariantIJNS_20TypeFunctionTypePackENS_28TypeFunctionVariadicTypePackENS_27TypeFunctionGenericTypePackEEE9tableDtorE, i64 0, i64 %39
  %41 = load ptr, ptr %40, align 8, !tbaa !33
  invoke void %41(ptr noundef nonnull %22)
          to label %_ZN4Luau7VariantIJNS_20TypeFunctionTypePackENS_28TypeFunctionVariadicTypePackENS_27TypeFunctionGenericTypePackEEED2Ev.exit6.i unwind label %42

42:                                               ; preds = %36
  %43 = landingpad { ptr, i32 }
          catch ptr null
  %44 = extractvalue { ptr, i32 } %43, 0
  call void @__clang_call_terminate(ptr %44) #28
  unreachable

_ZN4Luau7VariantIJNS_20TypeFunctionTypePackENS_28TypeFunctionVariadicTypePackENS_27TypeFunctionGenericTypePackEEED2Ev.exit6.i: ; preds = %36
  resume { ptr, i32 } %37

_ZN4Luau14TypedAllocatorINS_23TypeFunctionTypePackVarEE8allocateIJNS_7VariantIJNS_20TypeFunctionTypePackENS_28TypeFunctionVariadicTypePackENS_27TypeFunctionGenericTypePackEEEEEEEPS1_DpOT_.exit: ; preds = %_ZN4Luau23TypeFunctionTypePackVarC2ENS_7VariantIJNS_20TypeFunctionTypePackENS_28TypeFunctionVariadicTypePackENS_27TypeFunctionGenericTypePackEEEE.exit.i
  %45 = load i64, ptr %6, align 8, !tbaa !34
  %46 = add i64 %45, 1
  store i64 %46, ptr %6, align 8, !tbaa !34
  call void @llvm.lifetime.end.p0(i64 48, ptr nonnull %3)
  ret ptr %17
}